; ModuleID = '7/548.c'
source_filename = "7/548.c"
target datalayout = "e-m:e-p270:32:32-p271:32:32-p272:64:64-i64:64-f80:128-n8:16:32:64-S128"
target triple = "x86_64-pc-linux-gnu"

@.str = private unnamed_addr constant [7 x i8] c"%s%s%s\00", align 1
@.str.1 = private unnamed_addr constant [3 x i8] c"%c\00", align 1

; Function Attrs: noinline nounwind uwtable
define dso_local i32 @main() #0 {
  %1 = alloca i32, align 4
  %2 = alloca i32, align 4
  %3 = alloca i32, align 4
  %4 = alloca i32, align 4
  %5 = alloca i32, align 4
  %6 = alloca i32, align 4
  %7 = alloca i32, align 4
  %8 = alloca i32, align 4
  %9 = alloca i32, align 4
  %10 = alloca i32, align 4
  %11 = alloca [256 x i8], align 16
  %12 = alloca [256 x i8], align 16
  %13 = alloca [256 x i8], align 16
  store i32 0, i32* %1, align 4
  store i32 0, i32* %10, align 4
  %14 = getelementptr inbounds [256 x i8], [256 x i8]* %11, i64 0, i64 0
  %15 = getelementptr inbounds [256 x i8], [256 x i8]* %12, i64 0, i64 0
  %16 = getelementptr inbounds [256 x i8], [256 x i8]* %13, i64 0, i64 0
  %17 = call i32 (i8*, ...) @__isoc99_scanf(i8* getelementptr inbounds ([7 x i8], [7 x i8]* @.str, i64 0, i64 0), i8* %14, i8* %15, i8* %16)
  %18 = getelementptr inbounds [256 x i8], [256 x i8]* %11, i64 0, i64 0
  %19 = call i64 @strlen(i8* %18) #3
  %20 = trunc i64 %19 to i32
  store i32 %20, i32* %5, align 4
  %21 = getelementptr inbounds [256 x i8], [256 x i8]* %12, i64 0, i64 0
  %22 = call i64 @strlen(i8* %21) #3
  %23 = trunc i64 %22 to i32
  store i32 %23, i32* %6, align 4
  store i32 0, i32* %2, align 4
  br label %24

24:                                               ; preds = %98, %0
  %25 = load i32, i32* %2, align 4
  %26 = load i32, i32* %5, align 4
  %27 = load i32, i32* %6, align 4
  %28 = sub nsw i32 %26, %27
  %29 = icmp sle i32 %25, %28
  br i1 %29, label %30, label %101

30:                                               ; preds = %24
  %31 = load i32, i32* %2, align 4
  %32 = sext i32 %31 to i64
  %33 = getelementptr inbounds [256 x i8], [256 x i8]* %11, i64 0, i64 %32
  %34 = load i8, i8* %33, align 1
  %35 = sext i8 %34 to i32
  %36 = getelementptr inbounds [256 x i8], [256 x i8]* %12, i64 0, i64 0
  %37 = load i8, i8* %36, align 16
  %38 = sext i8 %37 to i32
  %39 = icmp eq i32 %35, %38
  br i1 %39, label %40, label %93

40:                                               ; preds = %30
  %41 = load i32, i32* %2, align 4
  store i32 %41, i32* %8, align 4
  store i32 0, i32* %3, align 4
  %42 = load i32, i32* %2, align 4
  store i32 %42, i32* %4, align 4
  br label %43

43:                                               ; preds = %61, %40
  %44 = load i32, i32* %3, align 4
  %45 = load i32, i32* %6, align 4
  %46 = icmp slt i32 %44, %45
  br i1 %46, label %47, label %66

47:                                               ; preds = %43
  %48 = load i32, i32* %4, align 4
  %49 = sext i32 %48 to i64
  %50 = getelementptr inbounds [256 x i8], [256 x i8]* %11, i64 0, i64 %49
  %51 = load i8, i8* %50, align 1
  %52 = sext i8 %51 to i32
  %53 = load i32, i32* %3, align 4
  %54 = sext i32 %53 to i64
  %55 = getelementptr inbounds [256 x i8], [256 x i8]* %12, i64 0, i64 %54
  %56 = load i8, i8* %55, align 1
  %57 = sext i8 %56 to i32
  %58 = icmp ne i32 %52, %57
  br i1 %58, label %59, label %60

59:                                               ; preds = %47
  br label %66

60:                                               ; preds = %47
  br label %61

61:                                               ; preds = %60
  %62 = load i32, i32* %3, align 4
  %63 = add nsw i32 %62, 1
  store i32 %63, i32* %3, align 4
  %64 = load i32, i32* %4, align 4
  %65 = add nsw i32 %64, 1
  store i32 %65, i32* %4, align 4
  br label %43

66:                                               ; preds = %59, %43
  %67 = load i32, i32* %3, align 4
  %68 = load i32, i32* %6, align 4
  %69 = icmp sge i32 %67, %68
  br i1 %69, label %70, label %92

70:                                               ; preds = %66
  %71 = load i32, i32* %8, align 4
  store i32 %71, i32* %7, align 4
  store i32 0, i32* %9, align 4
  br label %72

72:                                               ; preds = %86, %70
  %73 = load i32, i32* %7, align 4
  %74 = load i32, i32* %8, align 4
  %75 = load i32, i32* %6, align 4
  %76 = add nsw i32 %74, %75
  %77 = icmp slt i32 %73, %76
  br i1 %77, label %78, label %91

78:                                               ; preds = %72
  %79 = load i32, i32* %9, align 4
  %80 = sext i32 %79 to i64
  %81 = getelementptr inbounds [256 x i8], [256 x i8]* %13, i64 0, i64 %80
  %82 = load i8, i8* %81, align 1
  %83 = load i32, i32* %7, align 4
  %84 = sext i32 %83 to i64
  %85 = getelementptr inbounds [256 x i8], [256 x i8]* %11, i64 0, i64 %84
  store i8 %82, i8* %85, align 1
  store i32 1, i32* %10, align 4
  br label %86

86:                                               ; preds = %78
  %87 = load i32, i32* %7, align 4
  %88 = add nsw i32 %87, 1
  store i32 %88, i32* %7, align 4
  %89 = load i32, i32* %9, align 4
  %90 = add nsw i32 %89, 1
  store i32 %90, i32* %9, align 4
  br label %72

91:                                               ; preds = %72
  br label %92

92:                                               ; preds = %91, %66
  br label %93

93:                                               ; preds = %92, %30
  %94 = load i32, i32* %10, align 4
  %95 = icmp eq i32 %94, 1
  br i1 %95, label %96, label %97

96:                                               ; preds = %93
  br label %101

97:                                               ; preds = %93
  br label %98

98:                                               ; preds = %97
  %99 = load i32, i32* %2, align 4
  %100 = add nsw i32 %99, 1
  store i32 %100, i32* %2, align 4
  br label %24

101:                                              ; preds = %96, %24
  store i32 0, i32* %2, align 4
  br label %102

102:                                              ; preds = %113, %101
  %103 = load i32, i32* %2, align 4
  %104 = load i32, i32* %5, align 4
  %105 = icmp slt i32 %103, %104
  br i1 %105, label %106, label %116

106:                                              ; preds = %102
  %107 = load i32, i32* %2, align 4
  %108 = sext i32 %107 to i64
  %109 = getelementptr inbounds [256 x i8], [256 x i8]* %11, i64 0, i64 %108
  %110 = load i8, i8* %109, align 1
  %111 = sext i8 %110 to i32
  %112 = call i32 (i8*, ...) @printf(i8* getelementptr inbounds ([3 x i8], [3 x i8]* @.str.1, i64 0, i64 0), i32 %111)
  br label %113

113:                                              ; preds = %106
  %114 = load i32, i32* %2, align 4
  %115 = add nsw i32 %114, 1
  store i32 %115, i32* %2, align 4
  br label %102

116:                                              ; preds = %102
  ret i32 0
}

declare dso_local i32 @__isoc99_scanf(i8*, ...) #1

; Function Attrs: nounwind readonly
declare dso_local i64 @strlen(i8*) #2

declare dso_local i32 @printf(i8*, ...) #1


!llvm.module.flags = !{!0}
!llvm.ident = !{!1}

!0 = !{i32 1, !"wchar_size", i32 4}
!1 = !{!"clang version 10.0.0-4ubuntu1 "}
